(irefseq
ReferenceSequence
p1
(dp2
S'_count'
p3
(dp4
I0
(dp5
S'a'
I0
sS'c'
I0
sS't'
I0
sS'g'
I0
sS'$'
I0
sssS'_checkpoint'
p6
I100
sS'_first_occurrence'
p7
(dp8
S'a'
I1
sS'c'
I14
sS'$'
I0
sS'g'
I21
sS't'
I28
ssS'_bwt'
p9
S'gggatt$cccagatattaccatggcgaaacatttaata'
p10
sS'_seq'
p11
S'actacccgattcagggaaattcatacaggaatatttg'
p12
sS'_sarray'
p13
(lp14
I37
aI16
aI29
aI17
aI24
aI3
aI0
aI26
aI12
aI22
aI30
aI8
aI18
aI32
aI25
aI11
aI21
aI4
aI5
aI6
aI1
aI36
aI15
aI28
aI7
aI14
aI27
aI13
aI23
aI2
aI31
aI10
aI20
aI35
aI9
aI19
aI34
aI33
asb.